; ModuleID = '40/1005.cpp'
source_filename = "40/1005.cpp"
target datalayout = "e-m:e-p270:32:32-p271:32:32-p272:64:64-i64:64-f80:128-n8:16:32:64-S128"
target triple = "x86_64-pc-linux-gnu"

%"class.std::ios_base::Init" = type { i8 }
%"class.std::basic_istream" = type { i32 (...)**, i64, %"class.std::basic_ios" }
%"class.std::basic_ios" = type { %"class.std::ios_base", %"class.std::basic_ostream"*, i8, i8, %"class.std::basic_streambuf"*, %"class.std::ctype"*, %"class.std::num_put"*, %"class.std::num_get"* }
%"class.std::ios_base" = type { i32 (...)**, i64, i64, i32, i32, i32, %"struct.std::ios_base::_Callback_list"*, %"struct.std::ios_base::_Words", [8 x %"struct.std::ios_base::_Words"], i32, %"struct.std::ios_base::_Words"*, %"class.std::locale" }
%"struct.std::ios_base::_Callback_list" = type { %"struct.std::ios_base::_Callback_list"*, void (i32, %"class.std::ios_base"*, i32)*, i32, i32 }
%"struct.std::ios_base::_Words" = type { i8*, i64 }
%"class.std::locale" = type { %"class.std::locale::_Impl"* }
%"class.std::locale::_Impl" = type { i32, %"class.std::locale::facet"**, i64, %"class.std::locale::facet"**, i8** }
%"class.std::locale::facet" = type <{ i32 (...)**, i32, [4 x i8] }>
%"class.std::basic_ostream" = type { i32 (...)**, %"class.std::basic_ios" }
%"class.std::basic_streambuf" = type { i32 (...)**, i8*, i8*, i8*, i8*, i8*, i8*, %"class.std::locale" }
%"class.std::ctype" = type <{ %"class.std::locale::facet.base", [4 x i8], %struct.__locale_struct*, i8, [7 x i8], i32*, i32*, i16*, i8, [256 x i8], [256 x i8], i8, [6 x i8] }>
%"class.std::locale::facet.base" = type <{ i32 (...)**, i32 }>
%struct.__locale_struct = type { [13 x %struct.__locale_data*], i16*, i32*, i32*, [13 x i8*] }
%struct.__locale_data = type opaque
%"class.std::num_put" = type { %"class.std::locale::facet.base", [4 x i8] }
%"class.std::num_get" = type { %"class.std::locale::facet.base", [4 x i8] }

@_ZStL8__ioinit = internal global %"class.std::ios_base::Init" zeroinitializer, align 1
@__dso_handle = external hidden global i8
@_ZSt3cin = external dso_local global %"class.std::basic_istream", align 8
@.str = private unnamed_addr constant [15 x i8] c"Invalid input\0A\00", align 1
@.str.1 = private unnamed_addr constant [5 x i8] c"%.4f\00", align 1
@llvm.global_ctors = appending global [1 x { i32, void ()*, i8* }] [{ i32, void ()*, i8* } { i32 65535, void ()* @_GLOBAL__sub_I_1005.cpp, i8* null }]

; Function Attrs: noinline uwtable
define internal void @__cxx_global_var_init() #0 section ".text.startup" {
  call void @_ZNSt8ios_base4InitC1Ev(%"class.std::ios_base::Init"* @_ZStL8__ioinit)
  %1 = call i32 @__cxa_atexit(void (i8*)* bitcast (void (%"class.std::ios_base::Init"*)* @_ZNSt8ios_base4InitD1Ev to void (i8*)*), i8* getelementptr inbounds (%"class.std::ios_base::Init", %"class.std::ios_base::Init"* @_ZStL8__ioinit, i32 0, i32 0), i8* @__dso_handle) #3
  ret void
}

declare dso_local void @_ZNSt8ios_base4InitC1Ev(%"class.std::ios_base::Init"*) unnamed_addr #1

; Function Attrs: nounwind
declare dso_local void @_ZNSt8ios_base4InitD1Ev(%"class.std::ios_base::Init"*) unnamed_addr #2

; Function Attrs: nounwind
declare dso_local i32 @__cxa_atexit(void (i8*)*, i8*, i8*) #3

; Function Attrs: noinline norecurse uwtable
define dso_local i32 @main() #4 {
  %1 = alloca i32, align 4
  %2 = alloca float, align 4
  %3 = alloca float, align 4
  %4 = alloca float, align 4
  %5 = alloca float, align 4
  %6 = alloca float, align 4
  %7 = alloca float, align 4
  %8 = alloca double, align 8
  %9 = alloca double, align 8
  store i32 0, i32* %1, align 4
  %10 = call dereferenceable(280) %"class.std::basic_istream"* @_ZNSirsERf(%"class.std::basic_istream"* @_ZSt3cin, float* dereferenceable(4) %2)
  %11 = call dereferenceable(280) %"class.std::basic_istream"* @_ZNSirsERf(%"class.std::basic_istream"* %10, float* dereferenceable(4) %3)
  %12 = call dereferenceable(280) %"class.std::basic_istream"* @_ZNSirsERf(%"class.std::basic_istream"* %11, float* dereferenceable(4) %4)
  %13 = call dereferenceable(280) %"class.std::basic_istream"* @_ZNSirsERf(%"class.std::basic_istream"* %12, float* dereferenceable(4) %5)
  %14 = call dereferenceable(280) %"class.std::basic_istream"* @_ZNSirsERd(%"class.std::basic_istream"* %13, double* dereferenceable(8) %9)
  %15 = load float, float* %2, align 4
  %16 = load float, float* %3, align 4
  %17 = fadd float %15, %16
  %18 = load float, float* %4, align 4
  %19 = fadd float %17, %18
  %20 = load float, float* %5, align 4
  %21 = fadd float %19, %20
  %22 = fdiv float %21, 2.000000e+00
  store float %22, float* %6, align 4
  %23 = load double, double* %9, align 8
  %24 = fdiv double %23, 2.000000e+00
  %25 = fmul double %24, 0x400921FB4D12D84A
  %26 = fdiv double %25, 1.800000e+02
  store double %26, double* %8, align 8
  %27 = load float, float* %6, align 4
  %28 = load float, float* %2, align 4
  %29 = fsub float %27, %28
  %30 = load float, float* %6, align 4
  %31 = load float, float* %3, align 4
  %32 = fsub float %30, %31
  %33 = fmul float %29, %32
  %34 = load float, float* %6, align 4
  %35 = load float, float* %4, align 4
  %36 = fsub float %34, %35
  %37 = fmul float %33, %36
  %38 = load float, float* %6, align 4
  %39 = load float, float* %5, align 4
  %40 = fsub float %38, %39
  %41 = fmul float %37, %40
  %42 = fpext float %41 to double
  %43 = load float, float* %2, align 4
  %44 = load float, float* %3, align 4
  %45 = fmul float %43, %44
  %46 = load float, float* %4, align 4
  %47 = fmul float %45, %46
  %48 = load float, float* %5, align 4
  %49 = fmul float %47, %48
  %50 = fpext float %49 to double
  %51 = load double, double* %8, align 8
  %52 = call double @cos(double %51) #3
  %53 = fmul double %50, %52
  %54 = load double, double* %8, align 8
  %55 = call double @cos(double %54) #3
  %56 = fmul double %53, %55
  %57 = fsub double %42, %56
  %58 = call double @sqrt(double %57) #3
  %59 = fptrunc double %58 to float
  store float %59, float* %7, align 4
  %60 = load float, float* %6, align 4
  %61 = load float, float* %2, align 4
  %62 = fsub float %60, %61
  %63 = load float, float* %6, align 4
  %64 = load float, float* %3, align 4
  %65 = fsub float %63, %64
  %66 = fmul float %62, %65
  %67 = load float, float* %6, align 4
  %68 = load float, float* %4, align 4
  %69 = fsub float %67, %68
  %70 = fmul float %66, %69
  %71 = load float, float* %6, align 4
  %72 = load float, float* %5, align 4
  %73 = fsub float %71, %72
  %74 = fmul float %70, %73
  %75 = fpext float %74 to double
  %76 = load float, float* %2, align 4
  %77 = load float, float* %3, align 4
  %78 = fmul float %76, %77
  %79 = load float, float* %4, align 4
  %80 = fmul float %78, %79
  %81 = load float, float* %5, align 4
  %82 = fmul float %80, %81
  %83 = fpext float %82 to double
  %84 = load double, double* %8, align 8
  %85 = call double @cos(double %84) #3
  %86 = fmul double %83, %85
  %87 = load double, double* %8, align 8
  %88 = call double @cos(double %87) #3
  %89 = fmul double %86, %88
  %90 = fsub double %75, %89
  %91 = fcmp olt double %90, 0.000000e+00
  br i1 %91, label %92, label %94

92:                                               ; preds = %0
  %93 = call i32 (i8*, ...) @printf(i8* getelementptr inbounds ([15 x i8], [15 x i8]* @.str, i64 0, i64 0))
  br label %98

94:                                               ; preds = %0
  %95 = load float, float* %7, align 4
  %96 = fpext float %95 to double
  %97 = call i32 (i8*, ...) @printf(i8* getelementptr inbounds ([5 x i8], [5 x i8]* @.str.1, i64 0, i64 0), double %96)
  br label %98

98:                                               ; preds = %94, %92
  ret i32 0
}

declare dso_local dereferenceable(280) %"class.std::basic_istream"* @_ZNSirsERf(%"class.std::basic_istream"*, float* dereferenceable(4)) #1

declare dso_local dereferenceable(280) %"class.std::basic_istream"* @_ZNSirsERd(%"class.std::basic_istream"*, double* dereferenceable(8)) #1

; Function Attrs: nounwind
declare dso_local double @sqrt(double) #2

; Function Attrs: nounwind
declare dso_local double @cos(double) #2

declare dso_local i32 @printf(i8*, ...) #1

; Function Attrs: noinline uwtable
define internal void @_GLOBAL__sub_I_1005.cpp() #0 section ".text.startup" {
  call void @__cxx_global_var_init()
  ret void
}


!llvm.module.flags = !{!0}
!llvm.ident = !{!1}

!0 = !{i32 1, !"wchar_size", i32 4}
!1 = !{!"clang version 10.0.0-4ubuntu1 "}
